target datalayout = "e-m:e-p270:32:32-p271:32:32-p272:64:64-i64:64-i128:128-f80:128-n8:16:32:64-S128"
target triple = "x86_64-pc-linux-gnu"

%struct.Agraph_s = type { %struct.Agobj_s, %struct.Agdesc_s, %struct._dtlink_s, %struct._dtlink_s, ptr, ptr, ptr, ptr, ptr, ptr, ptr, ptr, ptr }
%struct.Agobj_s = type { %struct.Agtag_s, ptr }
%struct.Agtag_s = type { i32, i64 }
%struct.Agdesc_s = type { i8, [3 x i8] }
%struct._dtlink_s = type { ptr, %union.anon }
%union.anon = type { ptr }
%struct.Agclos_s = type { %struct.Agdisc_s, %struct.Agdstate_s, ptr, [3 x i64], ptr, [3 x ptr], [3 x ptr] }
%struct.Agdisc_s = type { ptr, ptr }
%struct.Agdstate_s = type { ptr }
%struct.Agiodisc_s = type { ptr, ptr, ptr }
%struct.Agdatadict_s = type { %struct.Agrec_s, %struct.anon }
%struct.Agrec_s = type { ptr, ptr }
%struct.anon = type { ptr, ptr, ptr }

@Level = internal global i32 0, align 4
@.str.2 = private unnamed_addr constant [5 x i8] c"node\00", align 1
@.str.3 = private unnamed_addr constant [5 x i8] c"edge\00", align 1
@.str.5 = private unnamed_addr constant [6 x i8] c"graph\00", align 1
@.str.9 = private unnamed_addr constant [1 x i8] zeroinitializer, align 1
@.str.10 = private unnamed_addr constant [4 x i8] c"sub\00", align 1
@.str.11 = private unnamed_addr constant [3 x i8] c"di\00", align 1
@.str.12 = private unnamed_addr constant [8 x i8] c"strict \00", align 1
@.str.13 = private unnamed_addr constant [9 x i8] c"tailport\00", align 1
@Tailport = internal global ptr null, align 8
@.str.14 = private unnamed_addr constant [9 x i8] c"headport\00", align 1
@Headport = internal global ptr null, align 8
@.str.15 = private unnamed_addr constant [2 x i8] c" \00", align 1
@.str.16 = private unnamed_addr constant [7 x i8] c"graph \00", align 1
@.str.17 = private unnamed_addr constant [3 x i8] c"{\0A\00", align 1
@.str.18 = private unnamed_addr constant [2 x i8] c"\09\00", align 1

; Function Attrs: nounwind uwtable
define internal i32 @write_dicts(ptr noundef %0, ptr noundef %1, i1 noundef zeroext %2) #0 {
  %4 = alloca i32, align 4
  %5 = alloca ptr, align 8
  %6 = alloca ptr, align 8
  %7 = alloca i8, align 1
  %8 = alloca ptr, align 8
  store ptr %0, ptr %5, align 8
  store ptr %1, ptr %6, align 8
  %9 = zext i1 %2 to i8
  store i8 %9, ptr %7, align 1
  %10 = load ptr, ptr %5, align 8
  %11 = call ptr @agdatadict(ptr noundef %10, i1 noundef zeroext false)
  store ptr %11, ptr %8, align 8
  %12 = icmp ne ptr %11, null
  br i1 %12, label %13, label %50

13:                                               ; preds = %3
  %14 = load ptr, ptr %5, align 8
  %15 = load ptr, ptr %6, align 8
  %16 = load ptr, ptr %8, align 8
  %17 = getelementptr inbounds %struct.Agdatadict_s, ptr %16, i32 0, i32 1
  %18 = getelementptr inbounds %struct.anon, ptr %17, i32 0, i32 2
  %19 = load ptr, ptr %18, align 8
  %20 = load i8, ptr %7, align 1
  %21 = trunc i8 %20 to i1
  %22 = call i32 @write_dict(ptr noundef %14, ptr noundef %15, ptr noundef @.str.5, ptr noundef %19, i1 noundef zeroext %21)
  %23 = icmp eq i32 %22, -1
  br i1 %23, label %24, label %25

24:                                               ; preds = %13
  store i32 -1, ptr %4, align 4
  br label %51

25:                                               ; preds = %13
  %26 = load ptr, ptr %5, align 8
  %27 = load ptr, ptr %6, align 8
  %28 = load ptr, ptr %8, align 8
  %29 = getelementptr inbounds %struct.Agdatadict_s, ptr %28, i32 0, i32 1
  %30 = getelementptr inbounds %struct.anon, ptr %29, i32 0, i32 0
  %31 = load ptr, ptr %30, align 8
  %32 = load i8, ptr %7, align 1
  %33 = trunc i8 %32 to i1
  %34 = call i32 @write_dict(ptr noundef %26, ptr noundef %27, ptr noundef @.str.2, ptr noundef %31, i1 noundef zeroext %33)
  %35 = icmp eq i32 %34, -1
  br i1 %35, label %36, label %37

36:                                               ; preds = %25
  store i32 -1, ptr %4, align 4
  br label %51

37:                                               ; preds = %25
  %38 = load ptr, ptr %5, align 8
  %39 = load ptr, ptr %6, align 8
  %40 = load ptr, ptr %8, align 8
  %41 = getelementptr inbounds %struct.Agdatadict_s, ptr %40, i32 0, i32 1
  %42 = getelementptr inbounds %struct.anon, ptr %41, i32 0, i32 1
  %43 = load ptr, ptr %42, align 8
  %44 = load i8, ptr %7, align 1
  %45 = trunc i8 %44 to i1
  %46 = call i32 @write_dict(ptr noundef %38, ptr noundef %39, ptr noundef @.str.3, ptr noundef %43, i1 noundef zeroext %45)
  %47 = icmp eq i32 %46, -1
  br i1 %47, label %48, label %49

48:                                               ; preds = %37
  store i32 -1, ptr %4, align 4
  br label %51

49:                                               ; preds = %37
  br label %50

50:                                               ; preds = %49, %3
  store i32 0, ptr %4, align 4
  br label %51

51:                                               ; preds = %50, %48, %36, %24
  %52 = load i32, ptr %4, align 4
  ret i32 %52
}

; Function Attrs: nounwind uwtable
define internal i32 @write_canonstr(ptr noundef %0, ptr noundef %1, ptr noundef %2) #0 {
  %4 = alloca ptr, align 8
  %5 = alloca ptr, align 8
  %6 = alloca ptr, align 8
  %7 = alloca ptr, align 8
  %8 = alloca i32, align 4
  store ptr %0, ptr %4, align 8
  store ptr %1, ptr %5, align 8
  store ptr %2, ptr %6, align 8
  %9 = load ptr, ptr %4, align 8
  %10 = load ptr, ptr %6, align 8
  %11 = call ptr @agstrdup(ptr noundef %9, ptr noundef %10)
  store ptr %11, ptr %7, align 8
  %12 = load ptr, ptr %4, align 8
  %13 = load ptr, ptr %5, align 8
  %14 = load ptr, ptr %7, align 8
  %15 = call i32 @_write_canonstr(ptr noundef %12, ptr noundef %13, ptr noundef %14, i1 noundef zeroext true)
  store i32 %15, ptr %8, align 4
  %16 = load ptr, ptr %4, align 8
  %17 = load ptr, ptr %7, align 8
  %18 = call i32 @agstrfree(ptr noundef %16, ptr noundef %17)
  %19 = load i32, ptr %8, align 4
  ret i32 %19
}

; Function Attrs: nounwind uwtable
define internal i32 @ioput(ptr noundef %0, ptr noundef %1, ptr noundef %2) #0 {
  %4 = alloca ptr, align 8
  %5 = alloca ptr, align 8
  %6 = alloca ptr, align 8
  store ptr %0, ptr %4, align 8
  store ptr %1, ptr %5, align 8
  store ptr %2, ptr %6, align 8
  %7 = load ptr, ptr %4, align 8
  %8 = getelementptr inbounds %struct.Agraph_s, ptr %7, i32 0, i32 12
  %9 = load ptr, ptr %8, align 8
  %10 = getelementptr inbounds %struct.Agclos_s, ptr %9, i32 0, i32 0
  %11 = getelementptr inbounds %struct.Agdisc_s, ptr %10, i32 0, i32 1
  %12 = load ptr, ptr %11, align 8
  %13 = getelementptr inbounds %struct.Agiodisc_s, ptr %12, i32 0, i32 1
  %14 = load ptr, ptr %13, align 8
  %15 = load ptr, ptr %5, align 8
  %16 = load ptr, ptr %6, align 8
  %17 = call i32 %14(ptr noundef %15, ptr noundef %16)
  ret i32 %17
}

; Function Attrs: nounwind uwtable
define internal i32 @indent(ptr noundef %0, ptr noundef %1) #0 {
  %3 = alloca i32, align 4
  %4 = alloca ptr, align 8
  %5 = alloca ptr, align 8
  %6 = alloca i32, align 4
  store ptr %0, ptr %4, align 8
  store ptr %1, ptr %5, align 8
  %7 = load i32, ptr @Level, align 4
  store i32 %7, ptr %6, align 4
  br label %8

8:                                                ; preds = %18, %2
  %9 = load i32, ptr %6, align 4
  %10 = icmp sgt i32 %9, 0
  br i1 %10, label %11, label %21

11:                                               ; preds = %8
  %12 = load ptr, ptr %4, align 8
  %13 = load ptr, ptr %5, align 8
  %14 = call i32 @ioput(ptr noundef %12, ptr noundef %13, ptr noundef @.str.18)
  %15 = icmp eq i32 %14, -1
  br i1 %15, label %16, label %17

16:                                               ; preds = %11
  store i32 -1, ptr %3, align 4
  br label %22

17:                                               ; preds = %11
  br label %18

18:                                               ; preds = %17
  %19 = load i32, ptr %6, align 4
  %20 = add nsw i32 %19, -1
  store i32 %20, ptr %6, align 4
  br label %8

21:                                               ; preds = %8
  store i32 0, ptr %3, align 4
  br label %22

22:                                               ; preds = %21, %16
  %23 = load i32, ptr %3, align 4
  ret i32 %23
}

; Function Attrs: nounwind uwtable
define internal i32 @write_hdr(ptr noundef %0, ptr noundef %1, i1 noundef zeroext %2) #0 {
  %4 = alloca i32, align 4
  %5 = alloca ptr, align 8
  %6 = alloca ptr, align 8
  %7 = alloca i8, align 1
  %8 = alloca ptr, align 8
  %9 = alloca ptr, align 8
  %10 = alloca ptr, align 8
  %11 = alloca ptr, align 8
  %12 = alloca i8, align 1
  %13 = alloca i8, align 1
  store ptr %0, ptr %5, align 8
  store ptr %1, ptr %6, align 8
  %14 = zext i1 %2 to i8
  store i8 %14, ptr %7, align 1
  store i8 0, ptr %12, align 1
  store i8 1, ptr %13, align 1
  store ptr @.str.9, ptr %11, align 8
  %15 = load i8, ptr %7, align 1
  %16 = trunc i8 %15 to i1
  br i1 %16, label %22, label %17

17:                                               ; preds = %3
  %18 = load ptr, ptr %5, align 8
  %19 = call ptr @agparent(ptr noundef %18)
  %20 = icmp ne ptr %19, null
  br i1 %20, label %21, label %22

21:                                               ; preds = %17
  store ptr @.str.10, ptr %10, align 8
  br label %41

22:                                               ; preds = %17, %3
  store i8 1, ptr %12, align 1
  %23 = load ptr, ptr %5, align 8
  %24 = getelementptr inbounds %struct.Agraph_s, ptr %23, i32 0, i32 1
  %25 = load i8, ptr %24, align 8
  %26 = and i8 %25, 1
  %27 = zext i8 %26 to i32
  %28 = icmp ne i32 %27, 0
  br i1 %28, label %29, label %30

29:                                               ; preds = %22
  store ptr @.str.11, ptr %10, align 8
  br label %31

30:                                               ; preds = %22
  store ptr @.str.9, ptr %10, align 8
  br label %31

31:                                               ; preds = %30, %29
  %32 = load ptr, ptr %5, align 8
  %33 = call i32 @agisstrict(ptr noundef %32)
  %34 = icmp ne i32 %33, 0
  br i1 %34, label %35, label %36

35:                                               ; preds = %31
  store ptr @.str.12, ptr %11, align 8
  br label %36

36:                                               ; preds = %35, %31
  %37 = load ptr, ptr %5, align 8
  %38 = call ptr @agattr(ptr noundef %37, i32 noundef 2, ptr noundef @.str.13, ptr noundef null)
  store ptr %38, ptr @Tailport, align 8
  %39 = load ptr, ptr %5, align 8
  %40 = call ptr @agattr(ptr noundef %39, i32 noundef 2, ptr noundef @.str.14, ptr noundef null)
  store ptr %40, ptr @Headport, align 8
  br label %41

41:                                               ; preds = %36, %21
  %42 = load ptr, ptr %5, align 8
  %43 = call ptr @agnameof(ptr noundef %42)
  store ptr %43, ptr %8, align 8
  store ptr @.str.15, ptr %9, align 8
  %44 = load ptr, ptr %8, align 8
  %45 = icmp ne ptr %44, null
  br i1 %45, label %46, label %52

46:                                               ; preds = %41
  %47 = load ptr, ptr %8, align 8
  %48 = getelementptr inbounds i8, ptr %47, i64 0
  %49 = load i8, ptr %48, align 1
  %50 = sext i8 %49 to i32
  %51 = icmp eq i32 %50, 37
  br i1 %51, label %52, label %53

52:                                               ; preds = %46, %41
  store ptr @.str.9, ptr %8, align 8
  store ptr @.str.9, ptr %9, align 8
  store i8 0, ptr %13, align 1
  br label %53

53:                                               ; preds = %52, %46
  %54 = load ptr, ptr %5, align 8
  %55 = load ptr, ptr %6, align 8
  %56 = call i32 @indent(ptr noundef %54, ptr noundef %55)
  %57 = icmp eq i32 %56, -1
  br i1 %57, label %58, label %59

58:                                               ; preds = %53
  store i32 -1, ptr %4, align 4
  br label %126

59:                                               ; preds = %53
  %60 = load ptr, ptr %5, align 8
  %61 = load ptr, ptr %6, align 8
  %62 = load ptr, ptr %11, align 8
  %63 = call i32 @ioput(ptr noundef %60, ptr noundef %61, ptr noundef %62)
  %64 = icmp eq i32 %63, -1
  br i1 %64, label %65, label %66

65:                                               ; preds = %59
  store i32 -1, ptr %4, align 4
  br label %126

66:                                               ; preds = %59
  %67 = load i8, ptr %12, align 1
  %68 = trunc i8 %67 to i1
  br i1 %68, label %72, label %69

69:                                               ; preds = %66
  %70 = load i8, ptr %13, align 1
  %71 = trunc i8 %70 to i1
  br i1 %71, label %72, label %86

72:                                               ; preds = %69, %66
  %73 = load ptr, ptr %5, align 8
  %74 = load ptr, ptr %6, align 8
  %75 = load ptr, ptr %10, align 8
  %76 = call i32 @ioput(ptr noundef %73, ptr noundef %74, ptr noundef %75)
  %77 = icmp eq i32 %76, -1
  br i1 %77, label %78, label %79

78:                                               ; preds = %72
  store i32 -1, ptr %4, align 4
  br label %126

79:                                               ; preds = %72
  %80 = load ptr, ptr %5, align 8
  %81 = load ptr, ptr %6, align 8
  %82 = call i32 @ioput(ptr noundef %80, ptr noundef %81, ptr noundef @.str.16)
  %83 = icmp eq i32 %82, -1
  br i1 %83, label %84, label %85

84:                                               ; preds = %79
  store i32 -1, ptr %4, align 4
  br label %126

85:                                               ; preds = %79
  br label %86

86:                                               ; preds = %85, %69
  %87 = load i8, ptr %13, align 1
  %88 = trunc i8 %87 to i1
  br i1 %88, label %89, label %97

89:                                               ; preds = %86
  %90 = load ptr, ptr %5, align 8
  %91 = load ptr, ptr %6, align 8
  %92 = load ptr, ptr %8, align 8
  %93 = call i32 @write_canonstr(ptr noundef %90, ptr noundef %91, ptr noundef %92)
  %94 = icmp eq i32 %93, -1
  br i1 %94, label %95, label %96

95:                                               ; preds = %89
  store i32 -1, ptr %4, align 4
  br label %126

96:                                               ; preds = %89
  br label %97

97:                                               ; preds = %96, %86
  %98 = load ptr, ptr %5, align 8
  %99 = load ptr, ptr %6, align 8
  %100 = load ptr, ptr %9, align 8
  %101 = call i32 @ioput(ptr noundef %98, ptr noundef %99, ptr noundef %100)
  %102 = icmp eq i32 %101, -1
  br i1 %102, label %103, label %104

103:                                              ; preds = %97
  store i32 -1, ptr %4, align 4
  br label %126

104:                                              ; preds = %97
  %105 = load ptr, ptr %5, align 8
  %106 = load ptr, ptr %6, align 8
  %107 = call i32 @ioput(ptr noundef %105, ptr noundef %106, ptr noundef @.str.17)
  %108 = icmp eq i32 %107, -1
  br i1 %108, label %109, label %110

109:                                              ; preds = %104
  store i32 -1, ptr %4, align 4
  br label %126

110:                                              ; preds = %104
  %111 = load i32, ptr @Level, align 4
  %112 = add nsw i32 %111, 1
  store i32 %112, ptr @Level, align 4
  %113 = load ptr, ptr %5, align 8
  %114 = load ptr, ptr %6, align 8
  %115 = load i8, ptr %7, align 1
  %116 = trunc i8 %115 to i1
  %117 = call i32 @write_dicts(ptr noundef %113, ptr noundef %114, i1 noundef zeroext %116)
  %118 = icmp eq i32 %117, -1
  br i1 %118, label %119, label %120

119:                                              ; preds = %110
  store i32 -1, ptr %4, align 4
  br label %126

120:                                              ; preds = %110
  %121 = load ptr, ptr %5, align 8
  %122 = getelementptr inbounds %struct.Agobj_s, ptr %121, i32 0, i32 0
  %123 = load i32, ptr %122, align 8
  %124 = and i32 %123, -9
  %125 = or i32 %124, 8
  store i32 %125, ptr %122, align 8
  store i32 0, ptr %4, align 4
  br label %126

126:                                              ; preds = %120, %119, %109, %103, %95, %84, %78, %65, %58
  %127 = load i32, ptr %4, align 4
  ret i32 %127
}