; Function Attrs: nounwind uwtable
define internal fastcc range(i32 -1, 1) i32 @write_hdr(ptr noundef %0, ptr noundef %1, i1 noundef zeroext %2) unnamed_addr #0 {
  br i1 %2, label %6, label %4

4:                                                ; preds = %3
  %5 = tail call ptr @agparent(ptr noundef %0) #9
  %.not = icmp eq ptr %5, null
  br i1 %.not, label %6, label %13

6:                                                ; preds = %4, %3
  %7 = getelementptr inbounds nuw i8, ptr %0, i64 24
  %8 = load i8, ptr %7, align 8
  %9 = and i8 %8, 1
  %.not42 = icmp eq i8 %9, 0
  %.str.9..str.11 = select i1 %.not42, ptr @.str.9, ptr @.str.11
  %10 = tail call i32 @agisstrict(ptr noundef %0) #9
  %.not43 = icmp eq i32 %10, 0
  %.1 = select i1 %.not43, ptr @.str.9, ptr @.str.12
  %11 = tail call ptr @agattr(ptr noundef %0, i32 noundef 2, ptr noundef nonnull @.str.13, ptr noundef null) #9
  store ptr %11, ptr @Tailport, align 8
  %12 = tail call ptr @agattr(ptr noundef %0, i32 noundef 2, ptr noundef nonnull @.str.14, ptr noundef null) #9
  store ptr %12, ptr @Headport, align 8
  br label %13

13:                                               ; preds = %4, %6
  %.036 = phi ptr [ %.str.9..str.11, %6 ], [ @.str.10, %4 ]
  %.035 = phi ptr [ %.1, %6 ], [ @.str.9, %4 ]
  %.034 = phi i1 [ true, %6 ], [ false, %4 ]
  %14 = tail call ptr @agnameof(ptr noundef %0) #9
  %.not44 = icmp eq ptr %14, null
  br i1 %.not44, label %18, label %15

15:                                               ; preds = %13
  %16 = load i8, ptr %14, align 1
  %17 = icmp eq i8 %16, 37
  br i1 %17, label %18, label %19

18:                                               ; preds = %15, %13
  br label %19

19:                                               ; preds = %18, %15
  %.039 = phi ptr [ @.str.9, %18 ], [ %14, %15 ]
  %.038 = phi ptr [ @.str.9, %18 ], [ @.str.15, %15 ]
  %.0 = phi i1 [ false, %18 ], [ true, %15 ]
  %20 = load i32, ptr @Level, align 4
  %21 = getelementptr i8, ptr %0, i64 128
  %22 = icmp sgt i32 %20, 0
  br i1 %22, label %.lr.ph.i, label %.loopexit

23:                                               ; preds = %.lr.ph.i
  %24 = add nsw i32 %.05.i, -1
  %25 = icmp sgt i32 %.05.i, 1
  br i1 %25, label %.lr.ph.i, label %.loopexit

.lr.ph.i:                                         ; preds = %19, %23
  %.05.i = phi i32 [ %24, %23 ], [ %20, %19 ]
  %.val.i = load ptr, ptr %21, align 8
  %26 = getelementptr i8, ptr %.val.i, i64 8
  %.val.val.i = load ptr, ptr %26, align 8
  %27 = getelementptr i8, ptr %.val.val.i, i64 8
  %.val.val.val.i = load ptr, ptr %27, align 8
  %28 = tail call i32 %.val.val.val.i(ptr noundef %1, ptr noundef nonnull @.str.18) #9
  %29 = icmp eq i32 %28, -1
  br i1 %29, label %indent.exit, label %23

.loopexit:                                        ; preds = %23, %19
  %.val = load ptr, ptr %21, align 8
  %30 = getelementptr i8, ptr %.val, i64 8
  %.val.val = load ptr, ptr %30, align 8
  %31 = getelementptr i8, ptr %.val.val, i64 8
  %.val.val.val = load ptr, ptr %31, align 8
  %32 = tail call i32 %.val.val.val(ptr noundef %1, ptr noundef nonnull %.035) #9
  %33 = icmp eq i32 %32, -1
  br i1 %33, label %indent.exit, label %34

34:                                               ; preds = %.loopexit
  %brmerge = or i1 %.034, %.0
  br i1 %brmerge, label %35, label %45

35:                                               ; preds = %34
  %.val45 = load ptr, ptr %21, align 8
  %36 = getelementptr i8, ptr %.val45, i64 8
  %.val45.val = load ptr, ptr %36, align 8
  %37 = getelementptr i8, ptr %.val45.val, i64 8
  %.val45.val.val = load ptr, ptr %37, align 8
  %38 = tail call i32 %.val45.val.val(ptr noundef %1, ptr noundef nonnull %.036) #9
  %39 = icmp eq i32 %38, -1
  br i1 %39, label %indent.exit, label %40

40:                                               ; preds = %35
  %.val46 = load ptr, ptr %21, align 8
  %41 = getelementptr i8, ptr %.val46, i64 8
  %.val46.val = load ptr, ptr %41, align 8
  %42 = getelementptr i8, ptr %.val46.val, i64 8
  %.val46.val.val = load ptr, ptr %42, align 8
  %43 = tail call i32 %.val46.val.val(ptr noundef %1, ptr noundef nonnull @.str.16) #9
  %44 = icmp eq i32 %43, -1
  br i1 %44, label %indent.exit, label %45

45:                                               ; preds = %34, %40
  br i1 %.0, label %46, label %51

46:                                               ; preds = %45
  %47 = tail call ptr @agstrdup(ptr noundef nonnull %0, ptr noundef nonnull %.039) #9
  %48 = tail call fastcc i32 @_write_canonstr(ptr noundef nonnull %0, ptr noundef %1, ptr noundef %47, i1 noundef zeroext true)
  %49 = tail call i32 @agstrfree(ptr noundef nonnull %0, ptr noundef %47) #9
  %50 = icmp eq i32 %48, -1
  br i1 %50, label %indent.exit, label %51

51:                                               ; preds = %46, %45
  %.val47 = load ptr, ptr %21, align 8
  %52 = getelementptr i8, ptr %.val47, i64 8
  %.val47.val = load ptr, ptr %52, align 8
  %53 = getelementptr i8, ptr %.val47.val, i64 8
  %.val47.val.val = load ptr, ptr %53, align 8
  %54 = tail call i32 %.val47.val.val(ptr noundef %1, ptr noundef nonnull %.038) #9
  %55 = icmp eq i32 %54, -1
  br i1 %55, label %indent.exit, label %56

56:                                               ; preds = %51
  %.val48 = load ptr, ptr %21, align 8
  %57 = getelementptr i8, ptr %.val48, i64 8
  %.val48.val = load ptr, ptr %57, align 8
  %58 = getelementptr i8, ptr %.val48.val, i64 8
  %.val48.val.val = load ptr, ptr %58, align 8
  %59 = tail call i32 %.val48.val.val(ptr noundef %1, ptr noundef nonnull @.str.17) #9
  %60 = icmp eq i32 %59, -1
  br i1 %60, label %indent.exit, label %61

61:                                               ; preds = %56
  %62 = load i32, ptr @Level, align 4
  %63 = add nsw i32 %62, 1
  store i32 %63, ptr @Level, align 4
  %64 = tail call ptr @agdatadict(ptr noundef nonnull %0, i1 noundef zeroext false) #9
  %.not.i = icmp eq ptr %64, null
  br i1 %.not.i, label %write_dicts.exit, label %65

65:                                               ; preds = %61
  %66 = getelementptr inbounds nuw i8, ptr %64, i64 32
  %67 = load ptr, ptr %66, align 8
  %68 = tail call fastcc i32 @write_dict(ptr noundef nonnull %0, ptr noundef %1, ptr noundef nonnull @.str.5, ptr noundef %67, i1 noundef zeroext %2)
  %69 = icmp eq i32 %68, -1
  br i1 %69, label %indent.exit, label %70

70:                                               ; preds = %65
  %71 = getelementptr inbounds nuw i8, ptr %64, i64 16
  %72 = load ptr, ptr %71, align 8
  %73 = tail call fastcc i32 @write_dict(ptr noundef nonnull %0, ptr noundef %1, ptr noundef nonnull @.str.2, ptr noundef %72, i1 noundef zeroext %2)
  %74 = icmp eq i32 %73, -1
  br i1 %74, label %indent.exit, label %75

75:                                               ; preds = %70
  %76 = getelementptr inbounds nuw i8, ptr %64, i64 24
  %77 = load ptr, ptr %76, align 8
  %78 = tail call fastcc i32 @write_dict(ptr noundef nonnull %0, ptr noundef %1, ptr noundef nonnull @.str.3, ptr noundef %77, i1 noundef zeroext %2)
  %79 = icmp eq i32 %78, -1
  br i1 %79, label %indent.exit, label %write_dicts.exit

write_dicts.exit:                                 ; preds = %75, %61
  %80 = load i32, ptr %0, align 8
  %81 = or i32 %80, 8
  store i32 %81, ptr %0, align 8
  br label %indent.exit

indent.exit:                                      ; preds = %.lr.ph.i, %75, %70, %65, %56, %51, %46, %40, %35, %.loopexit, %write_dicts.exit
  %.040 = phi i32 [ 0, %write_dicts.exit ], [ -1, %.loopexit ], [ -1, %35 ], [ -1, %40 ], [ -1, %46 ], [ -1, %51 ], [ -1, %56 ], [ -1, %65 ], [ -1, %70 ], [ -1, %75 ], [ -1, %.lr.ph.i ]
  ret i32 %.040
}